; ModuleID = 'source-C-CXX/32/1817.c'
source_filename = "source-C-CXX/32/1817.c"
target datalayout = "e-m:e-p270:32:32-p271:32:32-p272:64:64-i64:64-f80:128-n8:16:32:64-S128"
target triple = "x86_64-pc-linux-gnu"

@.str = private unnamed_addr constant [3 x i8] c"%d\00", align 1
@.str.1 = private unnamed_addr constant [3 x i8] c"%s\00", align 1

; Function Attrs: nofree nounwind sspstrong uwtable
define dso_local i32 @main() local_unnamed_addr #0 {
  %1 = alloca i32, align 4
  %2 = alloca [100 x i8], align 16
  %3 = alloca [100 x i8], align 16
  %4 = bitcast i32* %1 to i8*
  call void @llvm.lifetime.start.p0i8(i64 4, i8* nonnull %4) #4
  %5 = getelementptr inbounds [100 x i8], [100 x i8]* %2, i64 0, i64 0
  call void @llvm.lifetime.start.p0i8(i64 100, i8* nonnull %5) #4
  %6 = getelementptr inbounds [100 x i8], [100 x i8]* %3, i64 0, i64 0
  call void @llvm.lifetime.start.p0i8(i64 100, i8* nonnull %6) #4
  %7 = call i32 (i8*, ...) @__isoc99_scanf(i8* getelementptr inbounds ([3 x i8], [3 x i8]* @.str, i64 0, i64 0), i32* nonnull %1)
  %8 = load i32, i32* %1, align 4, !tbaa !5
  %9 = icmp sgt i32 %8, 0
  br i1 %9, label %10, label %38

10:                                               ; preds = %0, %30
  %11 = phi i32 [ %35, %30 ], [ 0, %0 ]
  %12 = call i32 (i8*, ...) @__isoc99_scanf(i8* getelementptr inbounds ([3 x i8], [3 x i8]* @.str.1, i64 0, i64 0), i8* nonnull %5)
  %13 = load i8, i8* %5, align 16, !tbaa !9
  %14 = icmp eq i8 %13, 0
  br i1 %14, label %30, label %15

15:                                               ; preds = %10, %23
  %16 = phi i64 [ %26, %23 ], [ 0, %10 ]
  %17 = phi i8 [ %28, %23 ], [ %13, %10 ]
  %18 = sext i8 %17 to i32
  switch i32 %18, label %22 [
    i32 65, label %23
    i32 84, label %19
    i32 71, label %20
    i32 67, label %21
  ]

19:                                               ; preds = %15
  br label %23

20:                                               ; preds = %15
  br label %23

21:                                               ; preds = %15
  br label %23

22:                                               ; preds = %15
  br label %23

23:                                               ; preds = %15, %19, %20, %21, %22
  %24 = phi i8 [ 65, %19 ], [ 67, %20 ], [ 71, %21 ], [ %17, %22 ], [ 84, %15 ]
  %25 = getelementptr inbounds [100 x i8], [100 x i8]* %3, i64 0, i64 %16
  store i8 %24, i8* %25, align 1, !tbaa !9
  %26 = add nuw i64 %16, 1
  %27 = getelementptr inbounds [100 x i8], [100 x i8]* %2, i64 0, i64 %26
  %28 = load i8, i8* %27, align 1, !tbaa !9
  %29 = icmp eq i8 %28, 0
  br i1 %29, label %30, label %15, !llvm.loop !10

30:                                               ; preds = %23, %10
  %31 = phi i64 [ 0, %10 ], [ %26, %23 ]
  %32 = and i64 %31, 4294967295
  %33 = getelementptr inbounds [100 x i8], [100 x i8]* %3, i64 0, i64 %32
  store i8 0, i8* %33, align 1, !tbaa !9
  %34 = call i32 @puts(i8* nonnull %6)
  %35 = add nuw nsw i32 %11, 1
  %36 = load i32, i32* %1, align 4, !tbaa !5
  %37 = icmp slt i32 %35, %36
  br i1 %37, label %10, label %38, !llvm.loop !12

38:                                               ; preds = %30, %0
  call void @llvm.lifetime.end.p0i8(i64 100, i8* nonnull %6) #4
  call void @llvm.lifetime.end.p0i8(i64 100, i8* nonnull %5) #4
  call void @llvm.lifetime.end.p0i8(i64 4, i8* nonnull %4) #4
  ret i32 0
}

; Function Attrs: argmemonly mustprogress nofree nosync nounwind willreturn
declare void @llvm.lifetime.start.p0i8(i64 immarg, i8* nocapture) #1

; Function Attrs: nofree nounwind
declare noundef i32 @__isoc99_scanf(i8* nocapture noundef readonly, ...) local_unnamed_addr #2

; Function Attrs: argmemonly mustprogress nofree nosync nounwind willreturn
declare void @llvm.lifetime.end.p0i8(i64 immarg, i8* nocapture) #1

; Function Attrs: nofree nounwind
declare noundef i32 @puts(i8* nocapture noundef readonly) local_unnamed_addr #3


!llvm.module.flags = !{!0, !1, !2, !3}
!llvm.ident = !{!4}

!0 = !{i32 1, !"wchar_size", i32 4}
!1 = !{i32 7, !"PIC Level", i32 2}
!2 = !{i32 7, !"PIE Level", i32 2}
!3 = !{i32 7, !"uwtable", i32 1}
!4 = !{!"clang version 13.0.0"}
!5 = !{!6, !6, i64 0}
!6 = !{!"int", !7, i64 0}
!7 = !{!"omnipotent char", !8, i64 0}
!8 = !{!"Simple C/C++ TBAA"}
!9 = !{!7, !7, i64 0}
!10 = distinct !{!10, !11}
!11 = !{!"llvm.loop.mustprogress"}
!12 = distinct !{!12, !11}
